(dp1
S'output'
p2
S''
sS'layer'
p3
S'Framework'
p4
sS'code'
p5
S''
sS'snapshot'
p6
(dp7
sS'traceback'
p8
S'Traceback (most recent call last):\n  File "/Volumes/ADD/web2py/gluon/main.py", line 446, in wsgibase\n    serve_controller(request, response, session)\n  File "/Volumes/ADD/web2py/gluon/main.py", line 194, in serve_controller\n    run_view_in(response._view_environment)\n  File "/Volumes/ADD/web2py/gluon/compileapp.py", line 711, in run_view_in\n    context=environment)\n  File "/Volumes/ADD/web2py/gluon/template.py", line 797, in parse_template\n    return str(TemplateParser(text, context=context, path=path, lexers=lexers, delimiters=delimiters))\n  File "/Volumes/ADD/web2py/gluon/template.py", line 319, in __init__\n    self.parse(text)\n  File "/Volumes/ADD/web2py/gluon/template.py", line 765, in parse\n    self.extend(extend)\n  File "/Volumes/ADD/web2py/gluon/template.py", line 494, in extend\n    _super_nodes=super_nodes)\n  File "/Volumes/ADD/web2py/gluon/template.py", line 319, in __init__\n    self.parse(text)\n  File "/Volumes/ADD/web2py/gluon/template.py", line 684, in parse\n    self.include(top, value)\n  File "/Volumes/ADD/web2py/gluon/template.py", line 469, in include\n    delimiters=self.delimiters)\n  File "/Volumes/ADD/web2py/gluon/template.py", line 319, in __init__\n    self.parse(text)\n  File "/Volumes/ADD/web2py/gluon/template.py", line 765, in parse\n    self.extend(extend)\n  File "/Volumes/ADD/web2py/gluon/template.py", line 494, in extend\n    _super_nodes=super_nodes)\n  File "/Volumes/ADD/web2py/gluon/template.py", line 319, in __init__\n    self.parse(text)\n  File "/Volumes/ADD/web2py/gluon/template.py", line 684, in parse\n    self.include(top, value)\n  File "/Volumes/ADD/web2py/gluon/template.py", line 469, in include\n    delimiters=self.delimiters)\n  File "/Volumes/ADD/web2py/gluon/template.py", line 319, in __init__\n    self.parse(text)\n  File "/Volumes/ADD/web2py/gluon/template.py", line 765, in parse\n    self.extend(extend)\n  File "/Volumes/ADD/web2py/gluon/template.py", line 494, in extend\n    _super_nodes=super_nodes)\n  File "/Volumes/ADD/web2py/gluon/template.py", line 319, in __init__\n    self.parse(text)\n  File "/Volumes/ADD/web2py/gluon/template.py", line 684, in parse\n    self.include(top, value)\n  File "/Volumes/ADD/web2py/gluon/template.py", line 469, in include\n    delimiters=self.delimiters)\n  File "/Volumes/ADD/web2py/gluon/template.py", line 319, in __init__\n    self.parse(text)\n  File "/Volumes/ADD/web2py/gluon/template.py", line 765, in parse\n    self.extend(extend)\n  File "/Volumes/ADD/web2py/gluon/template.py", line 494, in extend\n    _super_nodes=super_nodes)\n  File "/Volumes/ADD/web2py/gluon/template.py", line 319, in __init__\n    self.parse(text)\n  File "/Volumes/ADD/web2py/gluon/template.py", line 684, in parse\n    self.include(top, value)\n  File "/Volumes/ADD/web2py/gluon/template.py", line 469, in include\n    delimiters=self.delimiters)\n  File "/Volumes/ADD/web2py/gluon/template.py", line 319, in __init__\n    self.parse(text)\n  File "/Volumes/ADD/web2py/gluon/template.py", line 765, in parse\n    self.extend(extend)\n  File "/Volumes/ADD/web2py/gluon/template.py", line 494, in extend\n    _super_nodes=super_nodes)\n  File "/Volumes/ADD/web2py/gluon/template.py", line 319, in __init__\n    self.parse(text)\n  File "/Volumes/ADD/web2py/gluon/template.py", line 684, in parse\n    self.include(top, value)\n  File "/Volumes/ADD/web2py/gluon/template.py", line 469, in include\n    delimiters=self.delimiters)\n  File "/Volumes/ADD/web2py/gluon/template.py", line 319, in __init__\n    self.parse(text)\n  File "/Volumes/ADD/web2py/gluon/template.py", line 765, in parse\n    self.extend(extend)\n  File "/Volumes/ADD/web2py/gluon/template.py", line 494, in extend\n    _super_nodes=super_nodes)\n  File "/Volumes/ADD/web2py/gluon/template.py", line 319, in __init__\n    self.parse(text)\n  File "/Volumes/ADD/web2py/gluon/template.py", line 684, in parse\n    self.include(top, value)\n  File "/Volumes/ADD/web2py/gluon/template.py", line 469, in include\n    delimiters=self.delimiters)\n  File "/Volumes/ADD/web2py/gluon/template.py", line 319, in __init__\n    self.parse(text)\n  File "/Volumes/ADD/web2py/gluon/template.py", line 765, in parse\n    self.extend(extend)\n  File "/Volumes/ADD/web2py/gluon/template.py", line 494, in extend\n    _super_nodes=super_nodes)\n  File "/Volumes/ADD/web2py/gluon/template.py", line 319, in __init__\n    self.parse(text)\n  File "/Volumes/ADD/web2py/gluon/template.py", line 684, in parse\n    self.include(top, value)\n  File "/Volumes/ADD/web2py/gluon/template.py", line 469, in include\n    delimiters=self.delimiters)\n  File "/Volumes/ADD/web2py/gluon/template.py", line 319, in __init__\n    self.parse(text)\n  File "/Volumes/ADD/web2py/gluon/template.py", line 765, in parse\n    self.extend(extend)\n  File "/Volumes/ADD/web2py/gluon/template.py", line 494, in extend\n    _super_nodes=super_nodes)\n  File "/Volumes/ADD/web2py/gluon/template.py", line 319, in __init__\n    self.parse(text)\n  File "/Volumes/ADD/web2py/gluon/template.py", line 684, in parse\n    self.include(top, value)\n  File "/Volumes/ADD/web2py/gluon/template.py", line 469, in include\n    delimiters=self.delimiters)\n  File "/Volumes/ADD/web2py/gluon/template.py", line 319, in __init__\n    self.parse(text)\n  File "/Volumes/ADD/web2py/gluon/template.py", line 765, in parse\n    self.extend(extend)\n  File "/Volumes/ADD/web2py/gluon/template.py", line 494, in extend\n    _super_nodes=super_nodes)\n  File "/Volumes/ADD/web2py/gluon/template.py", line 319, in __init__\n    self.parse(text)\n  File "/Volumes/ADD/web2py/gluon/template.py", line 684, in parse\n    self.include(top, value)\n  File "/Volumes/ADD/web2py/gluon/template.py", line 469, in include\n    delimiters=self.delimiters)\n  File "/Volumes/ADD/web2py/gluon/template.py", line 319, in __init__\n    self.parse(text)\n  File "/Volumes/ADD/web2py/gluon/template.py", line 765, in parse\n    self.extend(extend)\n  File "/Volumes/ADD/web2py/gluon/template.py", line 494, in extend\n    _super_nodes=super_nodes)\n  File "/Volumes/ADD/web2py/gluon/template.py", line 319, in __init__\n    self.parse(text)\n  File "/Volumes/ADD/web2py/gluon/template.py", line 684, in parse\n    self.include(top, value)\n  File "/Volumes/ADD/web2py/gluon/template.py", line 469, in include\n    delimiters=self.delimiters)\n  File "/Volumes/ADD/web2py/gluon/template.py", line 319, in __init__\n    self.parse(text)\n  File "/Volumes/ADD/web2py/gluon/template.py", line 765, in parse\n    self.extend(extend)\n  File "/Volumes/ADD/web2py/gluon/template.py", line 494, in extend\n    _super_nodes=super_nodes)\n  File "/Volumes/ADD/web2py/gluon/template.py", line 319, in __init__\n    self.parse(text)\n  File "/Volumes/ADD/web2py/gluon/template.py", line 684, in parse\n    self.include(top, value)\n  File "/Volumes/ADD/web2py/gluon/template.py", line 469, in include\n    delimiters=self.delimiters)\n  File "/Volumes/ADD/web2py/gluon/template.py", line 319, in __init__\n    self.parse(text)\n  File "/Volumes/ADD/web2py/gluon/template.py", line 765, in parse\n    self.extend(extend)\n  File "/Volumes/ADD/web2py/gluon/template.py", line 494, in extend\n    _super_nodes=super_nodes)\n  File "/Volumes/ADD/web2py/gluon/template.py", line 319, in __init__\n    self.parse(text)\n  File "/Volumes/ADD/web2py/gluon/template.py", line 684, in parse\n    self.include(top, value)\n  File "/Volumes/ADD/web2py/gluon/template.py", line 469, in include\n    delimiters=self.delimiters)\n  File "/Volumes/ADD/web2py/gluon/template.py", line 319, in __init__\n    self.parse(text)\n  File "/Volumes/ADD/web2py/gluon/template.py", line 765, in parse\n    self.extend(extend)\n  File "/Volumes/ADD/web2py/gluon/template.py", line 494, in extend\n    _super_nodes=super_nodes)\n  File "/Volumes/ADD/web2py/gluon/template.py", line 319, in __init__\n    self.parse(text)\n  File "/Volumes/ADD/web2py/gluon/template.py", line 684, in parse\n    self.include(top, value)\n  File "/Volumes/ADD/web2py/gluon/template.py", line 469, in include\n    delimiters=self.delimiters)\n  File "/Volumes/ADD/web2py/gluon/template.py", line 319, in __init__\n    self.parse(text)\n  File "/Volumes/ADD/web2py/gluon/template.py", line 765, in parse\n    self.extend(extend)\n  File "/Volumes/ADD/web2py/gluon/template.py", line 494, in extend\n    _super_nodes=super_nodes)\n  File "/Volumes/ADD/web2py/gluon/template.py", line 319, in __init__\n    self.parse(text)\n  File "/Volumes/ADD/web2py/gluon/template.py", line 684, in parse\n    self.include(top, value)\n  File "/Volumes/ADD/web2py/gluon/template.py", line 469, in include\n    delimiters=self.delimiters)\n  File "/Volumes/ADD/web2py/gluon/template.py", line 319, in __init__\n    self.parse(text)\n  File "/Volumes/ADD/web2py/gluon/template.py", line 765, in parse\n    self.extend(extend)\n  File "/Volumes/ADD/web2py/gluon/template.py", line 494, in extend\n    _super_nodes=super_nodes)\n  File "/Volumes/ADD/web2py/gluon/template.py", line 319, in __init__\n    self.parse(text)\n  File "/Volumes/ADD/web2py/gluon/template.py", line 684, in parse\n    self.include(top, value)\n  File "/Volumes/ADD/web2py/gluon/template.py", line 469, in include\n    delimiters=self.delimiters)\n  File "/Volumes/ADD/web2py/gluon/template.py", line 319, in __init__\n    self.parse(text)\n  File "/Volumes/ADD/web2py/gluon/template.py", line 765, in parse\n    self.extend(extend)\n  File "/Volumes/ADD/web2py/gluon/template.py", line 494, in extend\n    _super_nodes=super_nodes)\n  File "/Volumes/ADD/web2py/gluon/template.py", line 319, in __init__\n    self.parse(text)\n  File "/Volumes/ADD/web2py/gluon/template.py", line 684, in parse\n    self.include(top, value)\n  File "/Volumes/ADD/web2py/gluon/template.py", line 469, in include\n    delimiters=self.delimiters)\n  File "/Volumes/ADD/web2py/gluon/template.py", line 319, in __init__\n    self.parse(text)\n  File "/Volumes/ADD/web2py/gluon/template.py", line 765, in parse\n    self.extend(extend)\n  File "/Volumes/ADD/web2py/gluon/template.py", line 494, in extend\n    _super_nodes=super_nodes)\n  File "/Volumes/ADD/web2py/gluon/template.py", line 319, in __init__\n    self.parse(text)\n  File "/Volumes/ADD/web2py/gluon/template.py", line 684, in parse\n    self.include(top, value)\n  File "/Volumes/ADD/web2py/gluon/template.py", line 469, in include\n    delimiters=self.delimiters)\n  File "/Volumes/ADD/web2py/gluon/template.py", line 319, in __init__\n    self.parse(text)\n  File "/Volumes/ADD/web2py/gluon/template.py", line 765, in parse\n    self.extend(extend)\n  File "/Volumes/ADD/web2py/gluon/template.py", line 494, in extend\n    _super_nodes=super_nodes)\n  File "/Volumes/ADD/web2py/gluon/template.py", line 319, in __init__\n    self.parse(text)\n  File "/Volumes/ADD/web2py/gluon/template.py", line 684, in parse\n    self.include(top, value)\n  File "/Volumes/ADD/web2py/gluon/template.py", line 469, in include\n    delimiters=self.delimiters)\n  File "/Volumes/ADD/web2py/gluon/template.py", line 319, in __init__\n    self.parse(text)\n  File "/Volumes/ADD/web2py/gluon/template.py", line 765, in parse\n    self.extend(extend)\n  File "/Volumes/ADD/web2py/gluon/template.py", line 494, in extend\n    _super_nodes=super_nodes)\n  File "/Volumes/ADD/web2py/gluon/template.py", line 319, in __init__\n    self.parse(text)\n  File "/Volumes/ADD/web2py/gluon/template.py", line 684, in parse\n    self.include(top, value)\n  File "/Volumes/ADD/web2py/gluon/template.py", line 469, in include\n    delimiters=self.delimiters)\n  File "/Volumes/ADD/web2py/gluon/template.py", line 319, in __init__\n    self.parse(text)\n  File "/Volumes/ADD/web2py/gluon/template.py", line 765, in parse\n    self.extend(extend)\n  File "/Volumes/ADD/web2py/gluon/template.py", line 494, in extend\n    _super_nodes=super_nodes)\n  File "/Volumes/ADD/web2py/gluon/template.py", line 319, in __init__\n    self.parse(text)\n  File "/Volumes/ADD/web2py/gluon/template.py", line 684, in parse\n    self.include(top, value)\n  File "/Volumes/ADD/web2py/gluon/template.py", line 469, in include\n    delimiters=self.delimiters)\n  File "/Volumes/ADD/web2py/gluon/template.py", line 319, in __init__\n    self.parse(text)\n  File "/Volumes/ADD/web2py/gluon/template.py", line 765, in parse\n    self.extend(extend)\n  File "/Volumes/ADD/web2py/gluon/template.py", line 494, in extend\n    _super_nodes=super_nodes)\n  File "/Volumes/ADD/web2py/gluon/template.py", line 319, in __init__\n    self.parse(text)\n  File "/Volumes/ADD/web2py/gluon/template.py", line 684, in parse\n    self.include(top, value)\n  File "/Volumes/ADD/web2py/gluon/template.py", line 469, in include\n    delimiters=self.delimiters)\n  File "/Volumes/ADD/web2py/gluon/template.py", line 319, in __init__\n    self.parse(text)\n  File "/Volumes/ADD/web2py/gluon/template.py", line 765, in parse\n    self.extend(extend)\n  File "/Volumes/ADD/web2py/gluon/template.py", line 494, in extend\n    _super_nodes=super_nodes)\n  File "/Volumes/ADD/web2py/gluon/template.py", line 319, in __init__\n    self.parse(text)\n  File "/Volumes/ADD/web2py/gluon/template.py", line 684, in parse\n    self.include(top, value)\n  File "/Volumes/ADD/web2py/gluon/template.py", line 469, in include\n    delimiters=self.delimiters)\n  File "/Volumes/ADD/web2py/gluon/template.py", line 319, in __init__\n    self.parse(text)\n  File "/Volumes/ADD/web2py/gluon/template.py", line 765, in parse\n    self.extend(extend)\n  File "/Volumes/ADD/web2py/gluon/template.py", line 494, in extend\n    _super_nodes=super_nodes)\n  File "/Volumes/ADD/web2py/gluon/template.py", line 319, in __init__\n    self.parse(text)\n  File "/Volumes/ADD/web2py/gluon/template.py", line 684, in parse\n    self.include(top, value)\n  File "/Volumes/ADD/web2py/gluon/template.py", line 469, in include\n    delimiters=self.delimiters)\n  File "/Volumes/ADD/web2py/gluon/template.py", line 319, in __init__\n    self.parse(text)\n  File "/Volumes/ADD/web2py/gluon/template.py", line 765, in parse\n    self.extend(extend)\n  File "/Volumes/ADD/web2py/gluon/template.py", line 494, in extend\n    _super_nodes=super_nodes)\n  File "/Volumes/ADD/web2py/gluon/template.py", line 319, in __init__\n    self.parse(text)\n  File "/Volumes/ADD/web2py/gluon/template.py", line 684, in parse\n    self.include(top, value)\n  File "/Volumes/ADD/web2py/gluon/template.py", line 469, in include\n    delimiters=self.delimiters)\n  File "/Volumes/ADD/web2py/gluon/template.py", line 319, in __init__\n    self.parse(text)\n  File "/Volumes/ADD/web2py/gluon/template.py", line 765, in parse\n    self.extend(extend)\n  File "/Volumes/ADD/web2py/gluon/template.py", line 494, in extend\n    _super_nodes=super_nodes)\n  File "/Volumes/ADD/web2py/gluon/template.py", line 319, in __init__\n    self.parse(text)\n  File "/Volumes/ADD/web2py/gluon/template.py", line 684, in parse\n    self.include(top, value)\n  File "/Volumes/ADD/web2py/gluon/template.py", line 469, in include\n    delimiters=self.delimiters)\n  File "/Volumes/ADD/web2py/gluon/template.py", line 319, in __init__\n    self.parse(text)\n  File "/Volumes/ADD/web2py/gluon/template.py", line 765, in parse\n    self.extend(extend)\n  File "/Volumes/ADD/web2py/gluon/template.py", line 494, in extend\n    _super_nodes=super_nodes)\n  File "/Volumes/ADD/web2py/gluon/template.py", line 319, in __init__\n    self.parse(text)\n  File "/Volumes/ADD/web2py/gluon/template.py", line 684, in parse\n    self.include(top, value)\n  File "/Volumes/ADD/web2py/gluon/template.py", line 469, in include\n    delimiters=self.delimiters)\n  File "/Volumes/ADD/web2py/gluon/template.py", line 319, in __init__\n    self.parse(text)\n  File "/Volumes/ADD/web2py/gluon/template.py", line 765, in parse\n    self.extend(extend)\n  File "/Volumes/ADD/web2py/gluon/template.py", line 494, in extend\n    _super_nodes=super_nodes)\n  File "/Volumes/ADD/web2py/gluon/template.py", line 319, in __init__\n    self.parse(text)\n  File "/Volumes/ADD/web2py/gluon/template.py", line 684, in parse\n    self.include(top, value)\n  File "/Volumes/ADD/web2py/gluon/template.py", line 469, in include\n    delimiters=self.delimiters)\n  File "/Volumes/ADD/web2py/gluon/template.py", line 319, in __init__\n    self.parse(text)\n  File "/Volumes/ADD/web2py/gluon/template.py", line 765, in parse\n    self.extend(extend)\n  File "/Volumes/ADD/web2py/gluon/template.py", line 494, in extend\n    _super_nodes=super_nodes)\n  File "/Volumes/ADD/web2py/gluon/template.py", line 319, in __init__\n    self.parse(text)\n  File "/Volumes/ADD/web2py/gluon/template.py", line 684, in parse\n    self.include(top, value)\n  File "/Volumes/ADD/web2py/gluon/template.py", line 469, in include\n    delimiters=self.delimiters)\n  File "/Volumes/ADD/web2py/gluon/template.py", line 319, in __init__\n    self.parse(text)\n  File "/Volumes/ADD/web2py/gluon/template.py", line 765, in parse\n    self.extend(extend)\n  File "/Volumes/ADD/web2py/gluon/template.py", line 494, in extend\n    _super_nodes=super_nodes)\n  File "/Volumes/ADD/web2py/gluon/template.py", line 319, in __init__\n    self.parse(text)\n  File "/Volumes/ADD/web2py/gluon/template.py", line 684, in parse\n    self.include(top, value)\n  File "/Volumes/ADD/web2py/gluon/template.py", line 469, in include\n    delimiters=self.delimiters)\n  File "/Volumes/ADD/web2py/gluon/template.py", line 319, in __init__\n    self.parse(text)\n  File "/Volumes/ADD/web2py/gluon/template.py", line 765, in parse\n    self.extend(extend)\n  File "/Volumes/ADD/web2py/gluon/template.py", line 494, in extend\n    _super_nodes=super_nodes)\n  File "/Volumes/ADD/web2py/gluon/template.py", line 319, in __init__\n    self.parse(text)\n  File "/Volumes/ADD/web2py/gluon/template.py", line 684, in parse\n    self.include(top, value)\n  File "/Volumes/ADD/web2py/gluon/template.py", line 469, in include\n    delimiters=self.delimiters)\n  File "/Volumes/ADD/web2py/gluon/template.py", line 319, in __init__\n    self.parse(text)\n  File "/Volumes/ADD/web2py/gluon/template.py", line 765, in parse\n    self.extend(extend)\n  File "/Volumes/ADD/web2py/gluon/template.py", line 494, in extend\n    _super_nodes=super_nodes)\n  File "/Volumes/ADD/web2py/gluon/template.py", line 319, in __init__\n    self.parse(text)\n  File "/Volumes/ADD/web2py/gluon/template.py", line 684, in parse\n    self.include(top, value)\n  File "/Volumes/ADD/web2py/gluon/template.py", line 469, in include\n    delimiters=self.delimiters)\n  File "/Volumes/ADD/web2py/gluon/template.py", line 319, in __init__\n    self.parse(text)\n  File "/Volumes/ADD/web2py/gluon/template.py", line 765, in parse\n    self.extend(extend)\n  File "/Volumes/ADD/web2py/gluon/template.py", line 494, in extend\n    _super_nodes=super_nodes)\n  File "/Volumes/ADD/web2py/gluon/template.py", line 319, in __init__\n    self.parse(text)\n  File "/Volumes/ADD/web2py/gluon/template.py", line 684, in parse\n    self.include(top, value)\n  File "/Volumes/ADD/web2py/gluon/template.py", line 469, in include\n    delimiters=self.delimiters)\n  File "/Volumes/ADD/web2py/gluon/template.py", line 319, in __init__\n    self.parse(text)\n  File "/Volumes/ADD/web2py/gluon/template.py", line 765, in parse\n    self.extend(extend)\n  File "/Volumes/ADD/web2py/gluon/template.py", line 494, in extend\n    _super_nodes=super_nodes)\n  File "/Volumes/ADD/web2py/gluon/template.py", line 319, in __init__\n    self.parse(text)\n  File "/Volumes/ADD/web2py/gluon/template.py", line 684, in parse\n    self.include(top, value)\n  File "/Volumes/ADD/web2py/gluon/template.py", line 469, in include\n    delimiters=self.delimiters)\n  File "/Volumes/ADD/web2py/gluon/template.py", line 319, in __init__\n    self.parse(text)\n  File "/Volumes/ADD/web2py/gluon/template.py", line 765, in parse\n    self.extend(extend)\n  File "/Volumes/ADD/web2py/gluon/template.py", line 494, in extend\n    _super_nodes=super_nodes)\n  File "/Volumes/ADD/web2py/gluon/template.py", line 319, in __init__\n    self.parse(text)\n  File "/Volumes/ADD/web2py/gluon/template.py", line 684, in parse\n    self.include(top, value)\n  File "/Volumes/ADD/web2py/gluon/template.py", line 469, in include\n    delimiters=self.delimiters)\n  File "/Volumes/ADD/web2py/gluon/template.py", line 319, in __init__\n    self.parse(text)\n  File "/Volumes/ADD/web2py/gluon/template.py", line 765, in parse\n    self.extend(extend)\n  File "/Volumes/ADD/web2py/gluon/template.py", line 494, in extend\n    _super_nodes=super_nodes)\n  File "/Volumes/ADD/web2py/gluon/template.py", line 319, in __init__\n    self.parse(text)\n  File "/Volumes/ADD/web2py/gluon/template.py", line 684, in parse\n    self.include(top, value)\n  File "/Volumes/ADD/web2py/gluon/template.py", line 469, in include\n    delimiters=self.delimiters)\n  File "/Volumes/ADD/web2py/gluon/template.py", line 319, in __init__\n    self.parse(text)\n  File "/Volumes/ADD/web2py/gluon/template.py", line 765, in parse\n    self.extend(extend)\n  File "/Volumes/ADD/web2py/gluon/template.py", line 494, in extend\n    _super_nodes=super_nodes)\n  File "/Volumes/ADD/web2py/gluon/template.py", line 319, in __init__\n    self.parse(text)\n  File "/Volumes/ADD/web2py/gluon/template.py", line 684, in parse\n    self.include(top, value)\n  File "/Volumes/ADD/web2py/gluon/template.py", line 469, in include\n    delimiters=self.delimiters)\n  File "/Volumes/ADD/web2py/gluon/template.py", line 319, in __init__\n    self.parse(text)\n  File "/Volumes/ADD/web2py/gluon/template.py", line 765, in parse\n    self.extend(extend)\n  File "/Volumes/ADD/web2py/gluon/template.py", line 494, in extend\n    _super_nodes=super_nodes)\n  File "/Volumes/ADD/web2py/gluon/template.py", line 319, in __init__\n    self.parse(text)\n  File "/Volumes/ADD/web2py/gluon/template.py", line 684, in parse\n    self.include(top, value)\n  File "/Volumes/ADD/web2py/gluon/template.py", line 469, in include\n    delimiters=self.delimiters)\n  File "/Volumes/ADD/web2py/gluon/template.py", line 319, in __init__\n    self.parse(text)\n  File "/Volumes/ADD/web2py/gluon/template.py", line 765, in parse\n    self.extend(extend)\n  File "/Volumes/ADD/web2py/gluon/template.py", line 494, in extend\n    _super_nodes=super_nodes)\n  File "/Volumes/ADD/web2py/gluon/template.py", line 319, in __init__\n    self.parse(text)\n  File "/Volumes/ADD/web2py/gluon/template.py", line 684, in parse\n    self.include(top, value)\n  File "/Volumes/ADD/web2py/gluon/template.py", line 469, in include\n    delimiters=self.delimiters)\n  File "/Volumes/ADD/web2py/gluon/template.py", line 319, in __init__\n    self.parse(text)\n  File "/Volumes/ADD/web2py/gluon/template.py", line 765, in parse\n    self.extend(extend)\n  File "/Volumes/ADD/web2py/gluon/template.py", line 494, in extend\n    _super_nodes=super_nodes)\n  File "/Volumes/ADD/web2py/gluon/template.py", line 319, in __init__\n    self.parse(text)\n  File "/Volumes/ADD/web2py/gluon/template.py", line 684, in parse\n    self.include(top, value)\n  File "/Volumes/ADD/web2py/gluon/template.py", line 469, in include\n    delimiters=self.delimiters)\n  File "/Volumes/ADD/web2py/gluon/template.py", line 319, in __init__\n    self.parse(text)\n  File "/Volumes/ADD/web2py/gluon/template.py", line 765, in parse\n    self.extend(extend)\n  File "/Volumes/ADD/web2py/gluon/template.py", line 494, in extend\n    _super_nodes=super_nodes)\n  File "/Volumes/ADD/web2py/gluon/template.py", line 319, in __init__\n    self.parse(text)\n  File "/Volumes/ADD/web2py/gluon/template.py", line 684, in parse\n    self.include(top, value)\n  File "/Volumes/ADD/web2py/gluon/template.py", line 469, in include\n    delimiters=self.delimiters)\n  File "/Volumes/ADD/web2py/gluon/template.py", line 319, in __init__\n    self.parse(text)\n  File "/Volumes/ADD/web2py/gluon/template.py", line 765, in parse\n    self.extend(extend)\n  File "/Volumes/ADD/web2py/gluon/template.py", line 494, in extend\n    _super_nodes=super_nodes)\n  File "/Volumes/ADD/web2py/gluon/template.py", line 319, in __init__\n    self.parse(text)\n  File "/Volumes/ADD/web2py/gluon/template.py", line 684, in parse\n    self.include(top, value)\n  File "/Volumes/ADD/web2py/gluon/template.py", line 469, in include\n    delimiters=self.delimiters)\n  File "/Volumes/ADD/web2py/gluon/template.py", line 319, in __init__\n    self.parse(text)\n  File "/Volumes/ADD/web2py/gluon/template.py", line 765, in parse\n    self.extend(extend)\n  File "/Volumes/ADD/web2py/gluon/template.py", line 494, in extend\n    _super_nodes=super_nodes)\n  File "/Volumes/ADD/web2py/gluon/template.py", line 319, in __init__\n    self.parse(text)\n  File "/Volumes/ADD/web2py/gluon/template.py", line 684, in parse\n    self.include(top, value)\n  File "/Volumes/ADD/web2py/gluon/template.py", line 469, in include\n    delimiters=self.delimiters)\n  File "/Volumes/ADD/web2py/gluon/template.py", line 319, in __init__\n    self.parse(text)\n  File "/Volumes/ADD/web2py/gluon/template.py", line 765, in parse\n    self.extend(extend)\n  File "/Volumes/ADD/web2py/gluon/template.py", line 494, in extend\n    _super_nodes=super_nodes)\n  File "/Volumes/ADD/web2py/gluon/template.py", line 319, in __init__\n    self.parse(text)\n  File "/Volumes/ADD/web2py/gluon/template.py", line 684, in parse\n    self.include(top, value)\n  File "/Volumes/ADD/web2py/gluon/template.py", line 469, in include\n    delimiters=self.delimiters)\n  File "/Volumes/ADD/web2py/gluon/template.py", line 319, in __init__\n    self.parse(text)\n  File "/Volumes/ADD/web2py/gluon/template.py", line 765, in parse\n    self.extend(extend)\n  File "/Volumes/ADD/web2py/gluon/template.py", line 494, in extend\n    _super_nodes=super_nodes)\n  File "/Volumes/ADD/web2py/gluon/template.py", line 319, in __init__\n    self.parse(text)\n  File "/Volumes/ADD/web2py/gluon/template.py", line 684, in parse\n    self.include(top, value)\n  File "/Volumes/ADD/web2py/gluon/template.py", line 469, in include\n    delimiters=self.delimiters)\n  File "/Volumes/ADD/web2py/gluon/template.py", line 319, in __init__\n    self.parse(text)\n  File "/Volumes/ADD/web2py/gluon/template.py", line 765, in parse\n    self.extend(extend)\n  File "/Volumes/ADD/web2py/gluon/template.py", line 494, in extend\n    _super_nodes=super_nodes)\n  File "/Volumes/ADD/web2py/gluon/template.py", line 319, in __init__\n    self.parse(text)\n  File "/Volumes/ADD/web2py/gluon/template.py", line 684, in parse\n    self.include(top, value)\n  File "/Volumes/ADD/web2py/gluon/template.py", line 469, in include\n    delimiters=self.delimiters)\n  File "/Volumes/ADD/web2py/gluon/template.py", line 319, in __init__\n    self.parse(text)\n  File "/Volumes/ADD/web2py/gluon/template.py", line 765, in parse\n    self.extend(extend)\n  File "/Volumes/ADD/web2py/gluon/template.py", line 494, in extend\n    _super_nodes=super_nodes)\n  File "/Volumes/ADD/web2py/gluon/template.py", line 319, in __init__\n    self.parse(text)\n  File "/Volumes/ADD/web2py/gluon/template.py", line 684, in parse\n    self.include(top, value)\n  File "/Volumes/ADD/web2py/gluon/template.py", line 469, in include\n    delimiters=self.delimiters)\n  File "/Volumes/ADD/web2py/gluon/template.py", line 319, in __init__\n    self.parse(text)\n  File "/Volumes/ADD/web2py/gluon/template.py", line 765, in parse\n    self.extend(extend)\n  File "/Volumes/ADD/web2py/gluon/template.py", line 494, in extend\n    _super_nodes=super_nodes)\n  File "/Volumes/ADD/web2py/gluon/template.py", line 319, in __init__\n    self.parse(text)\n  File "/Volumes/ADD/web2py/gluon/template.py", line 684, in parse\n    self.include(top, value)\n  File "/Volumes/ADD/web2py/gluon/template.py", line 469, in include\n    delimiters=self.delimiters)\n  File "/Volumes/ADD/web2py/gluon/template.py", line 319, in __init__\n    self.parse(text)\n  File "/Volumes/ADD/web2py/gluon/template.py", line 765, in parse\n    self.extend(extend)\n  File "/Volumes/ADD/web2py/gluon/template.py", line 494, in extend\n    _super_nodes=super_nodes)\n  File "/Volumes/ADD/web2py/gluon/template.py", line 319, in __init__\n    self.parse(text)\n  File "/Volumes/ADD/web2py/gluon/template.py", line 684, in parse\n    self.include(top, value)\n  File "/Volumes/ADD/web2py/gluon/template.py", line 469, in include\n    delimiters=self.delimiters)\n  File "/Volumes/ADD/web2py/gluon/template.py", line 319, in __init__\n    self.parse(text)\n  File "/Volumes/ADD/web2py/gluon/template.py", line 765, in parse\n    self.extend(extend)\n  File "/Volumes/ADD/web2py/gluon/template.py", line 494, in extend\n    _super_nodes=super_nodes)\n  File "/Volumes/ADD/web2py/gluon/template.py", line 319, in __init__\n    self.parse(text)\n  File "/Volumes/ADD/web2py/gluon/template.py", line 684, in parse\n    self.include(top, value)\n  File "/Volumes/ADD/web2py/gluon/template.py", line 469, in include\n    delimiters=self.delimiters)\n  File "/Volumes/ADD/web2py/gluon/template.py", line 319, in __init__\n    self.parse(text)\n  File "/Volumes/ADD/web2py/gluon/template.py", line 765, in parse\n    self.extend(extend)\n  File "/Volumes/ADD/web2py/gluon/template.py", line 494, in extend\n    _super_nodes=super_nodes)\n  File "/Volumes/ADD/web2py/gluon/template.py", line 319, in __init__\n    self.parse(text)\n  File "/Volumes/ADD/web2py/gluon/template.py", line 684, in parse\n    self.include(top, value)\n  File "/Volumes/ADD/web2py/gluon/template.py", line 469, in include\n    delimiters=self.delimiters)\n  File "/Volumes/ADD/web2py/gluon/template.py", line 319, in __init__\n    self.parse(text)\n  File "/Volumes/ADD/web2py/gluon/template.py", line 765, in parse\n    self.extend(extend)\n  File "/Volumes/ADD/web2py/gluon/template.py", line 494, in extend\n    _super_nodes=super_nodes)\n  File "/Volumes/ADD/web2py/gluon/template.py", line 319, in __init__\n    self.parse(text)\n  File "/Volumes/ADD/web2py/gluon/template.py", line 684, in parse\n    self.include(top, value)\n  File "/Volumes/ADD/web2py/gluon/template.py", line 469, in include\n    delimiters=self.delimiters)\n  File "/Volumes/ADD/web2py/gluon/template.py", line 319, in __init__\n    self.parse(text)\n  File "/Volumes/ADD/web2py/gluon/template.py", line 765, in parse\n    self.extend(extend)\n  File "/Volumes/ADD/web2py/gluon/template.py", line 494, in extend\n    _super_nodes=super_nodes)\n  File "/Volumes/ADD/web2py/gluon/template.py", line 319, in __init__\n    self.parse(text)\n  File "/Volumes/ADD/web2py/gluon/template.py", line 684, in parse\n    self.include(top, value)\n  File "/Volumes/ADD/web2py/gluon/template.py", line 469, in include\n    delimiters=self.delimiters)\n  File "/Volumes/ADD/web2py/gluon/template.py", line 319, in __init__\n    self.parse(text)\n  File "/Volumes/ADD/web2py/gluon/template.py", line 765, in parse\n    self.extend(extend)\n  File "/Volumes/ADD/web2py/gluon/template.py", line 494, in extend\n    _super_nodes=super_nodes)\n  File "/Volumes/ADD/web2py/gluon/template.py", line 319, in __init__\n    self.parse(text)\n  File "/Volumes/ADD/web2py/gluon/template.py", line 684, in parse\n    self.include(top, value)\n  File "/Volumes/ADD/web2py/gluon/template.py", line 469, in include\n    delimiters=self.delimiters)\n  File "/Volumes/ADD/web2py/gluon/template.py", line 319, in __init__\n    self.parse(text)\n  File "/Volumes/ADD/web2py/gluon/template.py", line 765, in parse\n    self.extend(extend)\n  File "/Volumes/ADD/web2py/gluon/template.py", line 494, in extend\n    _super_nodes=super_nodes)\n  File "/Volumes/ADD/web2py/gluon/template.py", line 319, in __init__\n    self.parse(text)\n  File "/Volumes/ADD/web2py/gluon/template.py", line 684, in parse\n    self.include(top, value)\n  File "/Volumes/ADD/web2py/gluon/template.py", line 469, in include\n    delimiters=self.delimiters)\n  File "/Volumes/ADD/web2py/gluon/template.py", line 319, in __init__\n    self.parse(text)\n  File "/Volumes/ADD/web2py/gluon/template.py", line 765, in parse\n    self.extend(extend)\n  File "/Volumes/ADD/web2py/gluon/template.py", line 494, in extend\n    _super_nodes=super_nodes)\n  File "/Volumes/ADD/web2py/gluon/template.py", line 319, in __init__\n    self.parse(text)\n  File "/Volumes/ADD/web2py/gluon/template.py", line 684, in parse\n    self.include(top, value)\n  File "/Volumes/ADD/web2py/gluon/template.py", line 469, in include\n    delimiters=self.delimiters)\n  File "/Volumes/ADD/web2py/gluon/template.py", line 319, in __init__\n    self.parse(text)\n  File "/Volumes/ADD/web2py/gluon/template.py", line 765, in parse\n    self.extend(extend)\n  File "/Volumes/ADD/web2py/gluon/template.py", line 494, in extend\n    _super_nodes=super_nodes)\n  File "/Volumes/ADD/web2py/gluon/template.py", line 319, in __init__\n    self.parse(text)\n  File "/Volumes/ADD/web2py/gluon/template.py", line 684, in parse\n    self.include(top, value)\n  File "/Volumes/ADD/web2py/gluon/template.py", line 469, in include\n    delimiters=self.delimiters)\n  File "/Volumes/ADD/web2py/gluon/template.py", line 319, in __init__\n    self.parse(text)\n  File "/Volumes/ADD/web2py/gluon/template.py", line 765, in parse\n    self.extend(extend)\n  File "/Volumes/ADD/web2py/gluon/template.py", line 494, in extend\n    _super_nodes=super_nodes)\n  File "/Volumes/ADD/web2py/gluon/template.py", line 319, in __init__\n    self.parse(text)\n  File "/Volumes/ADD/web2py/gluon/template.py", line 684, in parse\n    self.include(top, value)\n  File "/Volumes/ADD/web2py/gluon/template.py", line 469, in include\n    delimiters=self.delimiters)\n  File "/Volumes/ADD/web2py/gluon/template.py", line 319, in __init__\n    self.parse(text)\n  File "/Volumes/ADD/web2py/gluon/template.py", line 765, in parse\n    self.extend(extend)\n  File "/Volumes/ADD/web2py/gluon/template.py", line 494, in extend\n    _super_nodes=super_nodes)\n  File "/Volumes/ADD/web2py/gluon/template.py", line 319, in __init__\n    self.parse(text)\n  File "/Volumes/ADD/web2py/gluon/template.py", line 684, in parse\n    self.include(top, value)\n  File "/Volumes/ADD/web2py/gluon/template.py", line 469, in include\n    delimiters=self.delimiters)\n  File "/Volumes/ADD/web2py/gluon/template.py", line 319, in __init__\n    self.parse(text)\n  File "/Volumes/ADD/web2py/gluon/template.py", line 765, in parse\n    self.extend(extend)\n  File "/Volumes/ADD/web2py/gluon/template.py", line 494, in extend\n    _super_nodes=super_nodes)\n  File "/Volumes/ADD/web2py/gluon/template.py", line 319, in __init__\n    self.parse(text)\n  File "/Volumes/ADD/web2py/gluon/template.py", line 684, in parse\n    self.include(top, value)\n  File "/Volumes/ADD/web2py/gluon/template.py", line 469, in include\n    delimiters=self.delimiters)\n  File "/Volumes/ADD/web2py/gluon/template.py", line 319, in __init__\n    self.parse(text)\n  File "/Volumes/ADD/web2py/gluon/template.py", line 765, in parse\n    self.extend(extend)\n  File "/Volumes/ADD/web2py/gluon/template.py", line 494, in extend\n    _super_nodes=super_nodes)\n  File "/Volumes/ADD/web2py/gluon/template.py", line 319, in __init__\n    self.parse(text)\n  File "/Volumes/ADD/web2py/gluon/template.py", line 684, in parse\n    self.include(top, value)\n  File "/Volumes/ADD/web2py/gluon/template.py", line 469, in include\n    delimiters=self.delimiters)\n  File "/Volumes/ADD/web2py/gluon/template.py", line 319, in __init__\n    self.parse(text)\n  File "/Volumes/ADD/web2py/gluon/template.py", line 765, in parse\n    self.extend(extend)\n  File "/Volumes/ADD/web2py/gluon/template.py", line 494, in extend\n    _super_nodes=super_nodes)\n  File "/Volumes/ADD/web2py/gluon/template.py", line 319, in __init__\n    self.parse(text)\n  File "/Volumes/ADD/web2py/gluon/template.py", line 684, in parse\n    self.include(top, value)\n  File "/Volumes/ADD/web2py/gluon/template.py", line 469, in include\n    delimiters=self.delimiters)\n  File "/Volumes/ADD/web2py/gluon/template.py", line 319, in __init__\n    self.parse(text)\n  File "/Volumes/ADD/web2py/gluon/template.py", line 765, in parse\n    self.extend(extend)\n  File "/Volumes/ADD/web2py/gluon/template.py", line 494, in extend\n    _super_nodes=super_nodes)\n  File "/Volumes/ADD/web2py/gluon/template.py", line 319, in __init__\n    self.parse(text)\n  File "/Volumes/ADD/web2py/gluon/template.py", line 684, in parse\n    self.include(top, value)\n  File "/Volumes/ADD/web2py/gluon/template.py", line 469, in include\n    delimiters=self.delimiters)\n  File "/Volumes/ADD/web2py/gluon/template.py", line 319, in __init__\n    self.parse(text)\n  File "/Volumes/ADD/web2py/gluon/template.py", line 765, in parse\n    self.extend(extend)\n  File "/Volumes/ADD/web2py/gluon/template.py", line 494, in extend\n    _super_nodes=super_nodes)\n  File "/Volumes/ADD/web2py/gluon/template.py", line 319, in __init__\n    self.parse(text)\n  File "/Volumes/ADD/web2py/gluon/template.py", line 684, in parse\n    self.include(top, value)\n  File "/Volumes/ADD/web2py/gluon/template.py", line 469, in include\n    delimiters=self.delimiters)\n  File "/Volumes/ADD/web2py/gluon/template.py", line 319, in __init__\n    self.parse(text)\n  File "/Volumes/ADD/web2py/gluon/template.py", line 765, in parse\n    self.extend(extend)\n  File "/Volumes/ADD/web2py/gluon/template.py", line 494, in extend\n    _super_nodes=super_nodes)\n  File "/Volumes/ADD/web2py/gluon/template.py", line 319, in __init__\n    self.parse(text)\n  File "/Volumes/ADD/web2py/gluon/template.py", line 684, in parse\n    self.include(top, value)\n  File "/Volumes/ADD/web2py/gluon/template.py", line 469, in include\n    delimiters=self.delimiters)\n  File "/Volumes/ADD/web2py/gluon/template.py", line 319, in __init__\n    self.parse(text)\n  File "/Volumes/ADD/web2py/gluon/template.py", line 765, in parse\n    self.extend(extend)\n  File "/Volumes/ADD/web2py/gluon/template.py", line 494, in extend\n    _super_nodes=super_nodes)\n  File "/Volumes/ADD/web2py/gluon/template.py", line 319, in __init__\n    self.parse(text)\n  File "/Volumes/ADD/web2py/gluon/template.py", line 684, in parse\n    self.include(top, value)\n  File "/Volumes/ADD/web2py/gluon/template.py", line 469, in include\n    delimiters=self.delimiters)\n  File "/Volumes/ADD/web2py/gluon/template.py", line 319, in __init__\n    self.parse(text)\n  File "/Volumes/ADD/web2py/gluon/template.py", line 765, in parse\n    self.extend(extend)\n  File "/Volumes/ADD/web2py/gluon/template.py", line 494, in extend\n    _super_nodes=super_nodes)\n  File "/Volumes/ADD/web2py/gluon/template.py", line 319, in __init__\n    self.parse(text)\n  File "/Volumes/ADD/web2py/gluon/template.py", line 684, in parse\n    self.include(top, value)\n  File "/Volumes/ADD/web2py/gluon/template.py", line 469, in include\n    delimiters=self.delimiters)\n  File "/Volumes/ADD/web2py/gluon/template.py", line 319, in __init__\n    self.parse(text)\n  File "/Volumes/ADD/web2py/gluon/template.py", line 765, in parse\n    self.extend(extend)\n  File "/Volumes/ADD/web2py/gluon/template.py", line 494, in extend\n    _super_nodes=super_nodes)\n  File "/Volumes/ADD/web2py/gluon/template.py", line 319, in __init__\n    self.parse(text)\n  File "/Volumes/ADD/web2py/gluon/template.py", line 684, in parse\n    self.include(top, value)\n  File "/Volumes/ADD/web2py/gluon/template.py", line 469, in include\n    delimiters=self.delimiters)\n  File "/Volumes/ADD/web2py/gluon/template.py", line 319, in __init__\n    self.parse(text)\n  File "/Volumes/ADD/web2py/gluon/template.py", line 765, in parse\n    self.extend(extend)\n  File "/Volumes/ADD/web2py/gluon/template.py", line 494, in extend\n    _super_nodes=super_nodes)\n  File "/Volumes/ADD/web2py/gluon/template.py", line 319, in __init__\n    self.parse(text)\n  File "/Volumes/ADD/web2py/gluon/template.py", line 684, in parse\n    self.include(top, value)\n  File "/Volumes/ADD/web2py/gluon/template.py", line 469, in include\n    delimiters=self.delimiters)\n  File "/Volumes/ADD/web2py/gluon/template.py", line 319, in __init__\n    self.parse(text)\n  File "/Volumes/ADD/web2py/gluon/template.py", line 765, in parse\n    self.extend(extend)\n  File "/Volumes/ADD/web2py/gluon/template.py", line 494, in extend\n    _super_nodes=super_nodes)\n  File "/Volumes/ADD/web2py/gluon/template.py", line 319, in __init__\n    self.parse(text)\n  File "/Volumes/ADD/web2py/gluon/template.py", line 684, in parse\n    self.include(top, value)\n  File "/Volumes/ADD/web2py/gluon/template.py", line 469, in include\n    delimiters=self.delimiters)\n  File "/Volumes/ADD/web2py/gluon/template.py", line 319, in __init__\n    self.parse(text)\n  File "/Volumes/ADD/web2py/gluon/template.py", line 765, in parse\n    self.extend(extend)\n  File "/Volumes/ADD/web2py/gluon/template.py", line 494, in extend\n    _super_nodes=super_nodes)\n  File "/Volumes/ADD/web2py/gluon/template.py", line 319, in __init__\n    self.parse(text)\n  File "/Volumes/ADD/web2py/gluon/template.py", line 684, in parse\n    self.include(top, value)\n  File "/Volumes/ADD/web2py/gluon/template.py", line 469, in include\n    delimiters=self.delimiters)\n  File "/Volumes/ADD/web2py/gluon/template.py", line 319, in __init__\n    self.parse(text)\n  File "/Volumes/ADD/web2py/gluon/template.py", line 765, in parse\n    self.extend(extend)\n  File "/Volumes/ADD/web2py/gluon/template.py", line 494, in extend\n    _super_nodes=super_nodes)\n  File "/Volumes/ADD/web2py/gluon/template.py", line 319, in __init__\n    self.parse(text)\n  File "/Volumes/ADD/web2py/gluon/template.py", line 684, in parse\n    self.include(top, value)\n  File "/Volumes/ADD/web2py/gluon/template.py", line 469, in include\n    delimiters=self.delimiters)\n  File "/Volumes/ADD/web2py/gluon/template.py", line 319, in __init__\n    self.parse(text)\n  File "/Volumes/ADD/web2py/gluon/template.py", line 765, in parse\n    self.extend(extend)\n  File "/Volumes/ADD/web2py/gluon/template.py", line 494, in extend\n    _super_nodes=super_nodes)\n  File "/Volumes/ADD/web2py/gluon/template.py", line 319, in __init__\n    self.parse(text)\n  File "/Volumes/ADD/web2py/gluon/template.py", line 684, in parse\n    self.include(top, value)\n  File "/Volumes/ADD/web2py/gluon/template.py", line 469, in include\n    delimiters=self.delimiters)\n  File "/Volumes/ADD/web2py/gluon/template.py", line 319, in __init__\n    self.parse(text)\n  File "/Volumes/ADD/web2py/gluon/template.py", line 765, in parse\n    self.extend(extend)\n  File "/Volumes/ADD/web2py/gluon/template.py", line 494, in extend\n    _super_nodes=super_nodes)\n  File "/Volumes/ADD/web2py/gluon/template.py", line 319, in __init__\n    self.parse(text)\n  File "/Volumes/ADD/web2py/gluon/template.py", line 684, in parse\n    self.include(top, value)\n  File "/Volumes/ADD/web2py/gluon/template.py", line 469, in include\n    delimiters=self.delimiters)\n  File "/Volumes/ADD/web2py/gluon/template.py", line 319, in __init__\n    self.parse(text)\n  File "/Volumes/ADD/web2py/gluon/template.py", line 765, in parse\n    self.extend(extend)\n  File "/Volumes/ADD/web2py/gluon/template.py", line 494, in extend\n    _super_nodes=super_nodes)\n  File "/Volumes/ADD/web2py/gluon/template.py", line 319, in __init__\n    self.parse(text)\n  File "/Volumes/ADD/web2py/gluon/template.py", line 684, in parse\n    self.include(top, value)\n  File "/Volumes/ADD/web2py/gluon/template.py", line 469, in include\n    delimiters=self.delimiters)\n  File "/Volumes/ADD/web2py/gluon/template.py", line 319, in __init__\n    self.parse(text)\n  File "/Volumes/ADD/web2py/gluon/template.py", line 765, in parse\n    self.extend(extend)\n  File "/Volumes/ADD/web2py/gluon/template.py", line 494, in extend\n    _super_nodes=super_nodes)\n  File "/Volumes/ADD/web2py/gluon/template.py", line 319, in __init__\n    self.parse(text)\n  File "/Volumes/ADD/web2py/gluon/template.py", line 684, in parse\n    self.include(top, value)\n  File "/Volumes/ADD/web2py/gluon/template.py", line 469, in include\n    delimiters=self.delimiters)\n  File "/Volumes/ADD/web2py/gluon/template.py", line 319, in __init__\n    self.parse(text)\n  File "/Volumes/ADD/web2py/gluon/template.py", line 765, in parse\n    self.extend(extend)\n  File "/Volumes/ADD/web2py/gluon/template.py", line 494, in extend\n    _super_nodes=super_nodes)\n  File "/Volumes/ADD/web2py/gluon/template.py", line 319, in __init__\n    self.parse(text)\n  File "/Volumes/ADD/web2py/gluon/template.py", line 684, in parse\n    self.include(top, value)\n  File "/Volumes/ADD/web2py/gluon/template.py", line 469, in include\n    delimiters=self.delimiters)\n  File "/Volumes/ADD/web2py/gluon/template.py", line 319, in __init__\n    self.parse(text)\n  File "/Volumes/ADD/web2py/gluon/template.py", line 765, in parse\n    self.extend(extend)\n  File "/Volumes/ADD/web2py/gluon/template.py", line 494, in extend\n    _super_nodes=super_nodes)\n  File "/Volumes/ADD/web2py/gluon/template.py", line 319, in __init__\n    self.parse(text)\n  File "/Volumes/ADD/web2py/gluon/template.py", line 684, in parse\n    self.include(top, value)\n  File "/Volumes/ADD/web2py/gluon/template.py", line 469, in include\n    delimiters=self.delimiters)\n  File "/Volumes/ADD/web2py/gluon/template.py", line 319, in __init__\n    self.parse(text)\n  File "/Volumes/ADD/web2py/gluon/template.py", line 765, in parse\n    self.extend(extend)\n  File "/Volumes/ADD/web2py/gluon/template.py", line 494, in extend\n    _super_nodes=super_nodes)\n  File "/Volumes/ADD/web2py/gluon/template.py", line 319, in __init__\n    self.parse(text)\n  File "/Volumes/ADD/web2py/gluon/template.py", line 684, in parse\n    self.include(top, value)\n  File "/Volumes/ADD/web2py/gluon/template.py", line 469, in include\n    delimiters=self.delimiters)\n  File "/Volumes/ADD/web2py/gluon/template.py", line 319, in __init__\n    self.parse(text)\n  File "/Volumes/ADD/web2py/gluon/template.py", line 765, in parse\n    self.extend(extend)\n  File "/Volumes/ADD/web2py/gluon/template.py", line 494, in extend\n    _super_nodes=super_nodes)\n  File "/Volumes/ADD/web2py/gluon/template.py", line 319, in __init__\n    self.parse(text)\n  File "/Volumes/ADD/web2py/gluon/template.py", line 684, in parse\n    self.include(top, value)\n  File "/Volumes/ADD/web2py/gluon/template.py", line 469, in include\n    delimiters=self.delimiters)\n  File "/Volumes/ADD/web2py/gluon/template.py", line 319, in __init__\n    self.parse(text)\n  File "/Volumes/ADD/web2py/gluon/template.py", line 765, in parse\n    self.extend(extend)\n  File "/Volumes/ADD/web2py/gluon/template.py", line 494, in extend\n    _super_nodes=super_nodes)\n  File "/Volumes/ADD/web2py/gluon/template.py", line 319, in __init__\n    self.parse(text)\n  File "/Volumes/ADD/web2py/gluon/template.py", line 684, in parse\n    self.include(top, value)\n  File "/Volumes/ADD/web2py/gluon/template.py", line 469, in include\n    delimiters=self.delimiters)\n  File "/Volumes/ADD/web2py/gluon/template.py", line 319, in __init__\n    self.parse(text)\n  File "/Volumes/ADD/web2py/gluon/template.py", line 765, in parse\n    self.extend(extend)\n  File "/Volumes/ADD/web2py/gluon/template.py", line 494, in extend\n    _super_nodes=super_nodes)\n  File "/Volumes/ADD/web2py/gluon/template.py", line 319, in __init__\n    self.parse(text)\n  File "/Volumes/ADD/web2py/gluon/template.py", line 684, in parse\n    self.include(top, value)\n  File "/Volumes/ADD/web2py/gluon/template.py", line 469, in include\n    delimiters=self.delimiters)\n  File "/Volumes/ADD/web2py/gluon/template.py", line 319, in __init__\n    self.parse(text)\n  File "/Volumes/ADD/web2py/gluon/template.py", line 765, in parse\n    self.extend(extend)\n  File "/Volumes/ADD/web2py/gluon/template.py", line 494, in extend\n    _super_nodes=super_nodes)\n  File "/Volumes/ADD/web2py/gluon/template.py", line 298, in __init__\n    self.content = Content(name=name)\n  File "/Volumes/ADD/web2py/gluon/template.py", line 161, in __init__\n    def __init__(self, name="ContentBlock", pre_extend=False):\n  File "/Volumes/ADD/web2py/gluon/contrib/qdb.py", line 88, in trace_dispatch\n    if event == \'line\':\nRuntimeError: maximum recursion depth exceeded in cmp\n'
p9
s.