(dp1
S'output'
p2
S'missing "pass" in view'
p3
sS'layer'
p4
S'ParserContainer'
p5
sS'code'
p6
S'right_sidebar_enabled = True\nresponse.write(\'\\n\', escape=False)\nresponse.write(\'<!--[if HTML5]><![endif]-->\\n<!DOCTYPE html>\\n<!-- paulirish.com/2008/conditional-stylesheets-vs-css-hacks-answer-neither/ -->\\n<!--[if lt IE 7]><html class="ie ie6 ie-lte9 ie-lte8 ie-lte7 no-js" lang="\', escape=False)\nresponse.write(T.accepted_language or \'en\')\nresponse.write(\'"> <![endif]-->\\n<!--[if IE 7]><html class="ie ie7 ie-lte9 ie-lte8 ie-lte7 no-js" lang="\', escape=False)\nresponse.write(T.accepted_language or \'en\')\nresponse.write(\'"> <![endif]-->\\n<!--[if IE 8]><html class="ie ie8 ie-lte9 ie-lte8 no-js" lang="\', escape=False)\nresponse.write(T.accepted_language or \'en\')\nresponse.write(\'"> <![endif]-->\\n<!--[if IE 9]><html class="ie9 ie-lte9 no-js" lang="\', escape=False)\nresponse.write(T.accepted_language or \'en\')\nresponse.write(\'"> <![endif]-->\\n<!--[if (gt IE 9)|!(IE)]><!--> <html class="no-js" lang="\', escape=False)\nresponse.write(T.accepted_language or \'en\')\nresponse.write(\'"> <!--<![endif]-->\\n<head>\\n<title>\', escape=False)\nresponse.write(response.title or request.application)\nresponse.write(\'</title>\\n  <!--[if !HTML5]>\\n      <meta http-equiv="X-UA-Compatible" content="IE=edge\', escape=False)\nresponse.write(not request.is_local and \',chrome=1\' or \'\')\nresponse.write(\'">\\n  <![endif]-->\\n  <!-- www.phpied.com/conditional-comments-block-downloads/ -->\\n  <!-- Always force latest IE rendering engine\\n       (even in intranet) & Chrome Frame\\n       Remove this if you use the .htaccess -->\\n       \\n  <meta charset="utf-8" />\\n\\n  <!-- http://dev.w3.org/html5/markup/meta.name.html -->\\n  <meta name="application-name" content="\', escape=False)\nresponse.write(request.application)\nresponse.write(\'" />\\n\\n  <!-- Speaking of Google, don\\\'t forget to set your site up:\\n       http://google.com/webmasters -->\\n  <meta name="google-site-verification" content="" />\\n\\n  <!--  Mobile Viewport Fix\\n        j.mp/mobileviewport & davidbcalhoun.com/2010/viewport-metatag\\n        device-width: Occupy full width of the screen in its current orientation\\n        initial-scale = 1.0 retains dimensions instead of zooming out if page height > device height\\n        user-scalable = yes allows the user to zoom in -->\\n  <meta name="viewport" content="width=device-width, initial-scale=1.0" />\\n\\n  <link rel="shortcut icon" href="\', escape=False)\nresponse.write(URL(\'static\',\'images/favicon.ico\'))\nresponse.write(\'" type="image/x-icon">\\n  <link rel="apple-touch-icon" href="\', escape=False)\nresponse.write(URL(\'static\',\'images/favicon.png\'))\nresponse.write(\'">\\n\\n  <!-- All JavaScript at the bottom, except for Modernizr which enables\\n       HTML5 elements & feature detects -->\\n  <script src="\', escape=False)\nresponse.write(URL(\'static\',\'js/modernizr.custom.js\'))\nresponse.write(\'"></script>\\n\\n  <!-- include stylesheets -->\\n  \', escape=False)\nresponse.files.insert(0,URL(\'static\',\'css/web2py.css\'))\nresponse.files.insert(1,URL(\'static\',\'css/bootstrap.min.css\'))\nresponse.files.insert(2,URL(\'static\',\'css/bootstrap-responsive.min.css\'))\nresponse.files.insert(3,URL(\'static\',\'css/web2py_bootstrap.css\'))\nresponse.files.insert(4,URL(\'static\',\'css/main.css\'))\nresponse.write(\'\\n\\n  \', escape=False)\nresponse.write(\'<script type="text/javascript"><!--\\n    // These variables are used by the web2py_ajax_init function in web2py_ajax.js (which is loaded below).\\n    var w2p_ajax_confirm_message = "\', escape=False)\nresponse.write(T(\'Are you sure you want to delete this object?\'))\nresponse.write(\'";\\n    var w2p_ajax_disable_with_message = "\', escape=False)\nresponse.write(T(\'Working...\'))\nresponse.write(\'";\\n    var w2p_ajax_date_format = "\', escape=False)\nresponse.write(T(\'%Y-%m-%d\'))\nresponse.write(\'";\\n    var w2p_ajax_datetime_format = "\', escape=False)\nresponse.write(T(\'%Y-%m-%d %H:%M:%S\'))\nresponse.write(\'";\\n    var ajax_error_500 = \\\'\', escape=False)\nresponse.write(T.M(\'An error occured, please [[reload %s]] the page\') % URL(args=request.args, vars=request.get_vars))\nresponse.write("\'\\n    //--></script>\\n", escape=False)\nresponse.files.insert(0,URL(\'static\',\'js/jquery.js\'))\nresponse.files.insert(1,URL(\'static\',\'css/calendar.css\'))\nresponse.files.insert(2,URL(\'static\',\'js/calendar.js\'))\nresponse.files.insert(3,URL(\'static\',\'js/web2py.js\'))\nresponse.include_meta()\nresponse.include_files()\nresponse.write(\'\\n\', escape=False)\nresponse.write(\'\\n\\n  \', escape=False)\n# using sidebars need to know what sidebar you want to use\nleft_sidebar_enabled = globals().get(\'left_sidebar_enabled\',False)\nright_sidebar_enabled = globals().get(\'right_sidebar_enabled\',False)\nmiddle_columns = {0:\'span12\',1:\'span9\',2:\'span6\'}[\n(left_sidebar_enabled and 1 or 0)+(right_sidebar_enabled and 1 or 0)]\nresponse.write(\'\\n\\n  <!-- uncomment here to load jquery-ui\\n       <link rel="stylesheet" href="http://ajax.googleapis.com/ajax/libs/jqueryui/1.10.3/themes/ui-lightness/jquery-ui.css" type="text/css" media="all" />\\n       <script src="http://ajax.googleapis.com/ajax/libs/jqueryui/1.10.3/jquery-ui.min.js" type="text/javascript"></script>\\n       uncomment to load jquery-ui //-->\\n  <noscript><link href="\', escape=False)\nresponse.write(URL(\'static\', \'css/web2py_bootstrap_nojs.css\'))\nresponse.write(\'" rel="stylesheet" type="text/css" /></noscript>\\n  \', escape=False)\nresponse.write(\'\\n</head>\\n\\n<body>\\n\\n  <!-- Navbar ================================================== -->\\n  <div class="navbar navbar-inverse">\\n    <div class="flash">\', escape=False)\nresponse.write(response.flash or \'\')\nresponse.write(\'</div>\\n    <div class="navbar-inner">\\n      <div class="container">\\n        \', escape=False)\nis_mobile=request.user_agent().is_mobile\nresponse.write(\'\\n        <!-- the next tag is necessary for bootstrap menus, do not remove -->\\n        <button type="button" class="btn btn-navbar" data-toggle="collapse" data-target=".nav-collapse" style="\', escape=False)\nresponse.write(\'display:none;\' if not is_mobile else \'\')\nresponse.write(\'">\\n          <span class="icon-bar"></span>\\n          <span class="icon-bar"></span>\\n          <span class="icon-bar"></span>\\n        </button>\\n        <ul id="navbar" class="nav pull-right">\', escape=False)\nresponse.write(\'auth\' in globals() and auth.navbar(mode="dropdown") or \'\')\nresponse.write(\'</ul>\\n        \\n      </div>\\n    </div>\\n  </div><!--/top navbar -->\\n\\n  <div class="container">\\n    <!-- Masthead ================================================== -->\\n    <header class="mastheader row" id="header">\\n        <div class="span12">\\n            <div class="page-header">\\n                <h1>\\n                    \\xe5\\xbf\\x9c\\xe7\\x94\\xa8\\xe6\\x95\\xb0\\xe5\\xad\\xa6\\xe7\\xa0\\x94\\xe7\\xa9\\xb6\\xe9\\x83\\xa8\\n                </h1>\\n            </div>\\n        </div>\\n    </header>\\n\\n    <section id="main" class="news row">\\n        \', escape=False)\nif left_sidebar_enabled:\n    response.write(\'\\n        <div class="span3 left-sidebar">\\n            \', escape=False)\n    response.write(\'\\n            <h3>Left Sidebar</h3>\\n            <p></p>\\n            \', escape=False)\n    response.write(\'\\n        </div>\\n        \', escape=False)\n    pass\nresponse.write(\'\\n\\n        <div class="\', escape=False)\nresponse.write(middle_columns)\nresponse.write(\'">\\n            \', escape=False)\nresponse.write(\'\\n            \', escape=False)\nresponse.write(\'\\n<h1>\\xe3\\x81\\x8a\\xe7\\x9f\\xa5\\xe3\\x82\\x89\\xe3\\x81\\x9b</h1>\\n<br/>\\n<section>\\n\', escape=False)\nfor i in range(page,pageEnd):\n    response.write(\'\\n<p>\\n\\n</section>\\n\', escape=False)\n    response.write(A(\'\xe3\x82\xbf\xe3\x82\xa4\xe3\x83\x88\xe3\x83\xab\',_href=URL(c=\'uploader\',f=\'index\')))\n    response.write(\'\\n            \', escape=False)\n    response.write(\'\\n        </div>\\n\\n        \', escape=False)\n    if right_sidebar_enabled:\n        response.write(\'\\n        <div class="span3">\\n            \', escape=False)\n        response.write(\'\\n            <a class="twitter-timeline" href="https://twitter.com/tus_osk" data-widget-id="577552962702041089">@tus_osk\\xe3\\x81\\x95\\xe3\\x82\\x93\\xe3\\x81\\xae\\xe3\\x83\\x84\\xe3\\x82\\xa4\\xe3\\x83\\xbc\\xe3\\x83\\x88</a>\\n            <script>!function(d,s,id){var js,fjs=d.getElementsByTagName(s)[0],p=/^http:/.test(d.location)?\\\'http\\\':\\\'https\\\';if(!d.getElementById(id)){js=d.createElement(s);js.id=id;js.src=p+"://platform.twitter.com/widgets.js";fjs.parentNode.insertBefore(js,fjs);}}(document,"script","twitter-wjs");</script>\\n            \', escape=False)\n        response.write(\'\\n        </div>\\n        \', escape=False)\n        pass\n    response.write(\'\\n    </section><!--/main-->\\n\\n    <section \\n\\n<!-- Footer ================================================== -->\\n    <div class="row">\\n        <footer class="footer span12" id="footer">\\n            <div class="footer-content">\\n                \', escape=False)\n    response.write(\' <!-- this is default footer -->\\n                <div class="copyright pull-left">\', escape=False)\n    response.write(T(\'Copyright\'))\n    response.write(\' &#169; \', escape=False)\n    response.write(request.now.year)\n    response.write(\'</div>\\n                <div id="poweredBy" class="pull-right">\\n                    \', escape=False)\n    response.write(T(\'Powered by\'))\n    response.write(\'\\n                    <a href="http://www.web2py.com/">web2py</a>\\n                </div>\\n                \', escape=False)\n    response.write(\'\\n            </div>\\n        </footer>\\n    </div>\\n\\n  </div> <!-- /container -->\\n\\n  <!-- The javascript =============================================\\n       (Placed at the end of the document so the pages load faster) -->\\n  <script src="\', escape=False)\n    response.write(URL(\'static\',\'js/bootstrap.min.js\'))\n    response.write(\'"></script>\\n  <script src="\', escape=False)\n    response.write(URL(\'static\',\'js/web2py_bootstrap.js\'))\n    response.write(\'"></script>\\n  <!--[if lt IE 7 ]>\\n      <script src="\', escape=False)\n    response.write(URL(\'static\',\'js/dd_belatedpng.js\'))\n    response.write(\'"></script>\\n      <script> DD_belatedPNG.fix(\\\'img, .png_bg\\\'); //fix any <img> or .png_bg background-images </script>\\n      <![endif]-->\\n  \\n  \', escape=False)\n    if response.google_analytics_id:\n        response.write("\\n  <!-- Google Analytics -->\\n  <script>\\n    (function(i,s,o,g,r,a,m){i[\'GoogleAnalyticsObject\']=r;i[r]=i[r]||function(){\\n(i[r].q=i[r].q||[]).push(arguments)},i[r].l=1*new Date();a=s.createElement(o),\\nm=s.getElementsByTagName(o)[0];a.async=1;a.src=g;m.parentNode.insertBefore(a,m)\\n})(window,document,\'script\',\'//www.google-analytics.com/analytics.js\',\'ga\');\\n    ga(\'create\', \'", escape=False)\n        response.write(response.google_analytics_id)\n        response.write("\', \'auto\');\\n    ga(\'send\', \'pageview\');\\n  </script>\\n  <!-- End Google Analytics -->\\n  ", escape=False)\n        pass\n    response.write(\'\\n  <script src="\', escape=False)\n    response.write(URL(\'static\',\'js/share.js\',vars=dict(static=URL(\'static\',\'images\'))))\n    response.write(\'"></script>\\n</body>\\n</html>\\n\', escape=False)'
p7
sS'snapshot'
p8
(dp9
S'exception'
p10
(dp11
S'__module__'
p12
S"'socket'"
p13
sS'__getslice__'
p14
S"<method-wrapper '__getslice__' of error object>"
p15
sS'__str__'
p16
S"<method-wrapper '__str__' of error object>"
p17
sS'__reduce__'
p18
S'<built-in method __reduce__ of error object>'
p19
sS'__dict__'
p20
S'{}'
p21
sS'__sizeof__'
p22
S'<built-in method __sizeof__ of error object>'
p23
sS'__weakref__'
p24
S'None'
p25
sS'__init__'
p26
S"<method-wrapper '__init__' of error object>"
p27
sS'__setattr__'
p28
S"<method-wrapper '__setattr__' of error object>"
p29
sS'__reduce_ex__'
p30
S'<built-in method __reduce_ex__ of error object>'
p31
sS'__new__'
p32
S'<built-in method __new__ of type object>'
p33
sS'errno'
p34
S'54'
p35
sS'__format__'
p36
S'<built-in method __format__ of error object>'
p37
sS'__class__'
p38
S"<class 'socket.error'>"
p39
sS'filename'
p40
S'None'
p41
sS'__doc__'
p42
S'None'
p43
sS'__getitem__'
p44
S"<method-wrapper '__getitem__' of error object>"
p45
sS'__setstate__'
p46
S'<built-in method __setstate__ of error object>'
p47
sS'__getattribute__'
p48
S"<method-wrapper '__getattribute__' of error object>"
p49
sS'args'
p50
S"(54, 'Connection reset by peer')"
p51
sS'__subclasshook__'
p52
S'<built-in method __subclasshook__ of type object>'
p53
sS'__unicode__'
p54
S'<built-in method __unicode__ of error object>'
p55
sS'strerror'
p56
S"'Connection reset by peer'"
p57
sS'__delattr__'
p58
S"<method-wrapper '__delattr__' of error object>"
p59
sS'__repr__'
p60
S"<method-wrapper '__repr__' of error object>"
p61
sS'__hash__'
p62
S"<method-wrapper '__hash__' of error object>"
p63
ssS'evalue'
p64
S'[Errno 54] Connection reset by peer'
p65
sS'frames'
p66
(lp67
(dp68
S'file'
p69
S'/Volumes/ADD/web2py/gluon/rocket.py'
p70
sS'dump'
p71
(dp72
S'self'
p73
S'<WSGIWorker(Thread-6, started daemon 4678336512)>'
p74
sS'conn'
p75
S'<gluon.rocket.Connection object>'
p76
sS'self.run_app'
p77
S'<bound method WSGIWorker.run_app of <WSGIWorker(Thread-6, started daemon 4678336512)>>'
p78
ssS'lnum'
p79
I1337
sS'lines'
p80
(dp81
I1332
S'            # Enter connection serve loop'
p82
sI1333
S'            while True:'
p83
sI1334
S'                if __debug__:'
p84
sI1335
S"                    self.err_log.debug('Serving a request')"
p85
sI1336
S'                try:'
p86
sI1337
S'                    self.run_app(conn)'
p87
sI1338
S'                except:'
p88
sI1339
S'                    exc = sys.exc_info()'
p89
sI1340
S'                    handled = self._handleError(*exc)'
p90
sI1341
S'                    if handled:'
p91
ssS'call'
p92
S'(self=<WSGIWorker(Thread-6, started daemon 4678336512)>)'
p93
sS'func'
p94
S'run'
p95
sa(dp96
g69
S'/Volumes/ADD/web2py/gluon/rocket.py'
p97
sg71
(dp98
S'self'
p99
S'<WSGIWorker(Thread-6, started daemon 4678336512)>'
p100
sS'self.environ'
p101
S'{\'HTTP_ACCEPT\': \'text/html,application/xhtml+xml,application/xml;q=0.9,image/webp,*/*;q=0.8\', \'HTTP_ACCEPT_ENCODING\': \'gzip, deflate, sdch\', \'HTTP_ACCEPT_LANGUAGE\': \'ja,en-US;q=0.8,en;q=0.6\', \'HTTP_CACHE_CONTROL\': \'max-age=0\', \'HTTP_CONNECTION\': \'keep-alive\', \'HTTP_COOKIE\': \'dev_appserver_login="konayuta.sou@gmail.com:True...in=127.0.0.1-e1c8a4c2-5d52-427e-bb6f-ea7419a3b644\', \'HTTP_HOST\': \'127.0.0.1:8000\', \'HTTP_USER_AGENT\': \'Mozilla/5.0 (Macintosh; Intel Mac OS X 10_10_2) ...L, like Gecko) Chrome/41.0.2272.104 Safari/537.36\', \'PATH_INFO\': \'/\', \'QUERY_STRING\': \'\', ...}'
p102
sS'sock_file'
p103
S'<socket._fileobject object>'
p104
sS'environ'
p105
S'undefined'
p106
sS'self.build_environ'
p107
S'<bound method WSGIWorker.build_environ of <WSGIWorker(Thread-6, started daemon 4678336512)>>'
p108
sS'conn'
p109
S'<gluon.rocket.Connection object>'
p110
ssg79
I1830
sg80
(dp111
I1825
S'        else:'
p112
sI1826
S'            sock_file = conn.makefile(BUF_SIZE)'
p113
sI1827
S''
sI1828
S'        try:'
p114
sI1829
S'            # Read the headers and build our WSGI environment'
p115
sI1830
S'            self.environ = environ = self.build_environ(sock_file, conn)'
p116
sI1831
S''
sI1832
S'            # Handle 100 Continue'
p117
sI1833
S"            if environ.get('HTTP_EXPECT', '') == '100-continue':"
p118
sI1834
S"                res = environ['SERVER_PROTOCOL'] + ' 100 Continue\\r\\n\\r\\n'"
p119
ssg92
S'(self=<WSGIWorker(Thread-6, started daemon 4678336512)>, conn=<gluon.rocket.Connection object>)'
p120
sg94
S'run_app'
p121
sa(dp122
g69
S'/Volumes/ADD/web2py/gluon/rocket.py'
p123
sg71
(dp124
S'sock_file'
p125
S'<socket._fileobject object>'
p126
sS'self.read_request_line'
p127
S'<bound method WSGIWorker.read_request_line of <WSGIWorker(Thread-6, started daemon 4678336512)>>'
p128
sS'self'
p129
S'<WSGIWorker(Thread-6, started daemon 4678336512)>'
p130
sS'request'
p131
g106
ssg79
I1650
sg80
(dp132
I1645
S'                                      "wsgiorg.futures": executor.futures})'
p133
sI1646
S''
sI1647
S'    def build_environ(self, sock_file, conn):'
p134
sI1648
S'        """ Build the execution environment. """'
p135
sI1649
S'        # Grab the request line'
p136
sI1650
S'        request = self.read_request_line(sock_file)'
p137
sI1651
S''
sI1652
S'        # Copy the Base Environment'
p138
sI1653
S'        environ = self.base_environ.copy()'
p139
sI1654
S''
ssg92
S'(self=<WSGIWorker(Thread-6, started daemon 4678336512)>, sock_file=<socket._fileobject object>, conn=<gluon.rocket.Connection object>)'
p140
sg94
S'build_environ'
p141
sa(dp142
g69
S'/Volumes/ADD/web2py/gluon/rocket.py'
p143
sg71
(dp144
S'sock_file'
p145
S'<socket._fileobject object>'
p146
sS'sock_file.readline'
p147
S'<bound method _fileobject.readline of <socket._fileobject object>>'
p148
sS'd'
g106
ssg79
I1388
sg80
(dp149
I1383
S''
sI1384
S'    def read_request_line(self, sock_file):'
p150
sI1385
S"        self.request_line = ''"
p151
sI1386
S'        try:'
p152
sI1387
S'            # Grab the request line'
p153
sI1388
S'            d = sock_file.readline()'
p154
sI1389
S'            if PY3K:'
p155
sI1390
S"                d = d.decode('ISO-8859-1')"
p156
sI1391
S''
sI1392
S"            if d == '\\r\\n':"
p157
ssg92
S'(self=<WSGIWorker(Thread-6, started daemon 4678336512)>, sock_file=<socket._fileobject object>)'
p158
sg94
S'read_request_line'
p159
sa(dp160
g69
S'/System/Library/Frameworks/Python.framework/Versions/2.7/lib/python2.7/socket.py'
p161
sg71
(dp162
S'self._sock.recv'
p163
g106
sS'self._sock'
p164
S'None'
p165
sS'self'
p166
S'<socket._fileobject object>'
p167
sS'self._rbufsize'
p168
S'8192'
p169
sS'data'
p170
g106
ssg79
I447
sg80
(dp171
I448
S'                except error, e:'
p172
sI449
S'                    if e.args[0] == EINTR:'
p173
sI450
S'                        continue'
p174
sI451
S'                    raise'
p175
sI442
S''
sI443
S'            buf.seek(0, 2)  # seek end'
p176
sI444
S'            self._rbuf = StringIO()  # reset _rbuf.  we consume it via buf.'
p177
sI445
S'            while True:'
p178
sI446
S'                try:'
p179
sI447
S'                    data = self._sock.recv(self._rbufsize)'
p180
ssg92
S'(self=<socket._fileobject object>, size=-1)'
p181
sg94
S'readline'
p182
sasS'pyver'
p183
S'Python 2.7.6: /usr/bin/python (prefix: /System/Library/Frameworks/Python.framework/Versions/2.7)'
p184
sS'etype'
p185
S"<class 'socket.error'>"
p186
sS'date'
p187
S'Mon Apr  6 11:02:21 2015'
p188
sS'locals'
p189
(dp190
S'e'
S"error(54, 'Connection reset by peer')"
p191
sS'self'
p192
S'<socket._fileobject object>'
p193
sS'buf'
p194
S'<cStringIO.StringO object>'
p195
sS'size'
p196
S'-1'
p197
sssS'traceback'
p198
S'Traceback (most recent call last):\n  File "/Volumes/ADD/web2py/gluon/rocket.py", line 1337, in run\n    self.run_app(conn)\n  File "/Volumes/ADD/web2py/gluon/rocket.py", line 1830, in run_app\n    self.environ = environ = self.build_environ(sock_file, conn)\n  File "/Volumes/ADD/web2py/gluon/rocket.py", line 1650, in build_environ\n    request = self.read_request_line(sock_file)\n  File "/Volumes/ADD/web2py/gluon/rocket.py", line 1388, in read_request_line\n    d = sock_file.readline()\n  File "/System/Library/Frameworks/Python.framework/Versions/2.7/lib/python2.7/socket.py", line 447, in readline\n    data = self._sock.recv(self._rbufsize)\nerror: [Errno 54] Connection reset by peer\n'
p199
s.